target datalayout = "e-m:e-p270:32:32-p271:32:32-p272:64:64-i64:64-i128:128-f80:128-n8:16:32:64-S128"
target triple = "x86_64-pc-linux-gnu"

%"struct.nix::MemorySourceAccessor::File" = type { %"class.std::variant" }
%"class.std::variant" = type { %"struct.std::__detail::__variant::_Variant_base.base", [7 x i8] }
%"struct.std::__detail::__variant::_Variant_base.base" = type { %"struct.std::__detail::__variant::_Move_assign_base.base" }
%"struct.std::__detail::__variant::_Move_assign_base.base" = type { %"struct.std::__detail::__variant::_Copy_assign_base.base" }
%"struct.std::__detail::__variant::_Copy_assign_base.base" = type { %"struct.std::__detail::__variant::_Move_ctor_base.base" }
%"struct.std::__detail::__variant::_Move_ctor_base.base" = type { %"struct.std::__detail::__variant::_Copy_ctor_base.base" }
%"struct.std::__detail::__variant::_Copy_ctor_base.base" = type { %"struct.std::__detail::__variant::_Variant_storage.base" }
%"struct.std::__detail::__variant::_Variant_storage.base" = type { %"union.std::__detail::__variant::_Variadic_union", i8 }
%"union.std::__detail::__variant::_Variadic_union" = type { %"union.std::__detail::__variant::_Variadic_union.1" }
%"union.std::__detail::__variant::_Variadic_union.1" = type { %"struct.std::__detail::__variant::_Uninitialized.2" }
%"struct.std::__detail::__variant::_Uninitialized.2" = type { %"struct.__gnu_cxx::__aligned_membuf.3" }
%"struct.__gnu_cxx::__aligned_membuf.3" = type { [48 x i8] }
%"class.std::optional" = type { %"struct.std::_Optional_base" }
%"struct.std::_Optional_base" = type { %"struct.std::_Optional_payload" }
%"struct.std::_Optional_payload" = type { %"struct.std::_Optional_payload.base", [7 x i8] }
%"struct.std::_Optional_payload.base" = type { %"struct.std::_Optional_payload_base.base" }
%"struct.std::_Optional_payload_base.base" = type { %"union.std::_Optional_payload_base<nix::MemorySourceAccessor::File>::_Storage", i8 }
%"union.std::_Optional_payload_base<nix::MemorySourceAccessor::File>::_Storage" = type { %"struct.nix::MemorySourceAccessor::File" }
%"struct.std::_Optional_payload_base" = type { %"union.std::_Optional_payload_base<nix::MemorySourceAccessor::File>::_Storage", i8, [7 x i8] }

; Function Attrs: mustprogress nounwind uwtable
define linkonce_odr void @_ZNSt22_Optional_payload_baseIN3nix20MemorySourceAccessor4FileEE8_StorageIS2_Lb0EED2Ev(ptr noundef nonnull align 8 dereferenceable(56) %0) unnamed_addr #4 comdat align 2 {
  %2 = alloca ptr, align 8
  store ptr %0, ptr %2, align 8
  ret void
}

; Function Attrs: mustprogress nounwind uwtable
define linkonce_odr void @_ZNSt22_Optional_payload_baseIN3nix20MemorySourceAccessor4FileEE8_StorageIS2_Lb0EEC2Ev(ptr noundef nonnull align 8 dereferenceable(56) %0) unnamed_addr #4 comdat align 2 {
  %2 = alloca ptr, align 8
  store ptr %0, ptr %2, align 8
  ret void
}

; Function Attrs: mustprogress nounwind uwtable
define linkonce_odr void @_ZNSt22_Optional_payload_baseIN3nix20MemorySourceAccessor4FileEED2Ev(ptr noundef nonnull align 8 dereferenceable(57) %0) unnamed_addr #4 comdat align 2 {
  %2 = alloca ptr, align 8
  store ptr %0, ptr %2, align 8
  %3 = load ptr, ptr %2, align 8
  %4 = getelementptr inbounds %"struct.std::_Optional_payload_base", ptr %3, i32 0, i32 0
  call void @_ZNSt22_Optional_payload_baseIN3nix20MemorySourceAccessor4FileEE8_StorageIS2_Lb0EED2Ev(ptr noundef nonnull align 8 dereferenceable(56) %4) #3
  ret void
}

; Function Attrs: mustprogress nounwind uwtable
define linkonce_odr void @_ZNSt22_Optional_payload_baseIN3nix20MemorySourceAccessor4FileEEC2Ev(ptr noundef nonnull align 8 dereferenceable(57) %0) unnamed_addr #4 comdat align 2 {
  %2 = alloca ptr, align 8
  store ptr %0, ptr %2, align 8
  %3 = load ptr, ptr %2, align 8
  %4 = getelementptr inbounds %"struct.std::_Optional_payload_base", ptr %3, i32 0, i32 0
  call void @_ZNSt22_Optional_payload_baseIN3nix20MemorySourceAccessor4FileEE8_StorageIS2_Lb0EEC2Ev(ptr noundef nonnull align 8 dereferenceable(56) %4) #3
  %5 = getelementptr inbounds %"struct.std::_Optional_payload_base", ptr %3, i32 0, i32 1
  store i8 0, ptr %5, align 8
  ret void
}

; Function Attrs: mustprogress nounwind uwtable
define linkonce_odr void @_ZNSt17_Optional_payloadIN3nix20MemorySourceAccessor4FileELb1ELb0ELb0EED2Ev(ptr noundef nonnull align 8 dereferenceable(57) %0) unnamed_addr #4 comdat align 2 {
  %2 = alloca ptr, align 8
  store ptr %0, ptr %2, align 8
  %3 = load ptr, ptr %2, align 8
  call void @_ZNSt22_Optional_payload_baseIN3nix20MemorySourceAccessor4FileEED2Ev(ptr noundef nonnull align 8 dereferenceable(57) %3) #3
  ret void
}

; Function Attrs: mustprogress nounwind uwtable
define linkonce_odr void @_ZNSt17_Optional_payloadIN3nix20MemorySourceAccessor4FileELb1ELb0ELb0EEC2Ev(ptr noundef nonnull align 8 dereferenceable(57) %0) unnamed_addr #4 comdat align 2 {
  %2 = alloca ptr, align 8
  store ptr %0, ptr %2, align 8
  %3 = load ptr, ptr %2, align 8
  call void @_ZNSt22_Optional_payload_baseIN3nix20MemorySourceAccessor4FileEEC2Ev(ptr noundef nonnull align 8 dereferenceable(57) %3) #3
  ret void
}

; Function Attrs: mustprogress nounwind uwtable
define linkonce_odr void @_ZNSt17_Optional_payloadIN3nix20MemorySourceAccessor4FileELb0ELb0ELb0EED2Ev(ptr noundef nonnull align 8 dereferenceable(57) %0) unnamed_addr #4 comdat align 2 {
  %2 = alloca ptr, align 8
  store ptr %0, ptr %2, align 8
  %3 = load ptr, ptr %2, align 8
  call void @_ZNSt22_Optional_payload_baseIN3nix20MemorySourceAccessor4FileEE8_M_resetEv(ptr noundef nonnull align 8 dereferenceable(57) %3) #3
  call void @_ZNSt17_Optional_payloadIN3nix20MemorySourceAccessor4FileELb1ELb0ELb0EED2Ev(ptr noundef nonnull align 8 dereferenceable(57) %3) #3
  ret void
}

; Function Attrs: mustprogress nounwind uwtable
define linkonce_odr void @_ZNSt17_Optional_payloadIN3nix20MemorySourceAccessor4FileELb0ELb0ELb0EEC2Ev(ptr noundef nonnull align 8 dereferenceable(57) %0) unnamed_addr #4 comdat align 2 {
  %2 = alloca ptr, align 8
  store ptr %0, ptr %2, align 8
  %3 = load ptr, ptr %2, align 8
  call void @_ZNSt17_Optional_payloadIN3nix20MemorySourceAccessor4FileELb1ELb0ELb0EEC2Ev(ptr noundef nonnull align 8 dereferenceable(57) %3) #3
  ret void
}

; Function Attrs: mustprogress nounwind uwtable
define linkonce_odr void @_ZNSt14_Optional_baseIN3nix20MemorySourceAccessor4FileELb0ELb0EED2Ev(ptr noundef nonnull align 8 dereferenceable(64) %0) unnamed_addr #4 comdat align 2 {
  %2 = alloca ptr, align 8
  store ptr %0, ptr %2, align 8
  %3 = load ptr, ptr %2, align 8
  %4 = getelementptr inbounds %"struct.std::_Optional_base", ptr %3, i32 0, i32 0
  call void @_ZNSt17_Optional_payloadIN3nix20MemorySourceAccessor4FileELb0ELb0ELb0EED2Ev(ptr noundef nonnull align 8 dereferenceable(57) %4) #3
  ret void
}

; Function Attrs: mustprogress nounwind uwtable
define linkonce_odr void @_ZNSt14_Optional_baseIN3nix20MemorySourceAccessor4FileELb0ELb0EEC2Ev(ptr noundef nonnull align 8 dereferenceable(64) %0) unnamed_addr #4 comdat align 2 {
  %2 = alloca ptr, align 8
  store ptr %0, ptr %2, align 8
  %3 = load ptr, ptr %2, align 8
  %4 = getelementptr inbounds %"struct.std::_Optional_base", ptr %3, i32 0, i32 0
  call void @_ZNSt17_Optional_payloadIN3nix20MemorySourceAccessor4FileELb0ELb0ELb0EEC2Ev(ptr noundef nonnull align 8 dereferenceable(57) %4) #3
  ret void
}

; Function Attrs: mustprogress nounwind uwtable
define linkonce_odr void @_ZNSt8optionalIN3nix20MemorySourceAccessor4FileEED2Ev(ptr noundef nonnull align 8 dereferenceable(64) %0) unnamed_addr #4 comdat align 2 {
  %2 = alloca ptr, align 8
  store ptr %0, ptr %2, align 8
  %3 = load ptr, ptr %2, align 8
  call void @_ZNSt14_Optional_baseIN3nix20MemorySourceAccessor4FileELb0ELb0EED2Ev(ptr noundef nonnull align 8 dereferenceable(64) %3) #3
  ret void
}

; Function Attrs: mustprogress nounwind uwtable
define linkonce_odr void @_ZNSt8optionalIN3nix20MemorySourceAccessor4FileEEC2ESt9nullopt_t(ptr noundef nonnull align 8 dereferenceable(64) %0) unnamed_addr #4 comdat align 2 {
  %2 = alloca ptr, align 8
  store ptr %0, ptr %2, align 8
  %3 = load ptr, ptr %2, align 8
  call void @_ZNSt14_Optional_baseIN3nix20MemorySourceAccessor4FileELb0ELb0EEC2Ev(ptr noundef nonnull align 8 dereferenceable(64) %3) #3
  ret void
}

; Function Attrs: mustprogress uwtable
define noundef zeroext i1 @_ZN3nix20MemorySourceAccessor10pathExistsERKNS_9CanonPathE(ptr noundef nonnull align 8 dereferenceable(64) %0, ptr noundef nonnull align 8 dereferenceable(32) %1) unnamed_addr #5 align 2 personality ptr @__gxx_personality_v0 {
  %3 = alloca ptr, align 8
  %4 = alloca ptr, align 8
  %5 = alloca %"class.std::optional", align 8
  %6 = alloca ptr, align 8
  %7 = alloca i32, align 4
  store ptr %0, ptr %3, align 8
  store ptr %1, ptr %4, align 8
  %8 = load ptr, ptr %3, align 8
  %9 = load ptr, ptr %4, align 8
  call void @_ZNSt8optionalIN3nix20MemorySourceAccessor4FileEEC2ESt9nullopt_t(ptr noundef nonnull align 8 dereferenceable(64) %5) #3
  %10 = invoke noundef ptr @_ZN3nix20MemorySourceAccessor4openERKNS_9CanonPathESt8optionalINS0_4FileEE(ptr noundef nonnull align 8 dereferenceable(64) %8, ptr noundef nonnull align 8 dereferenceable(32) %9, ptr noundef %5)
          to label %11 unwind label %13

11:                                               ; preds = %2
  %12 = icmp ne ptr %10, null
  call void @_ZNSt8optionalIN3nix20MemorySourceAccessor4FileEED2Ev(ptr noundef nonnull align 8 dereferenceable(64) %5) #3
  ret i1 %12

13:                                               ; preds = %2
  %14 = landingpad { ptr, i32 }
          cleanup
  %15 = extractvalue { ptr, i32 } %14, 0
  store ptr %15, ptr %6, align 8
  %16 = extractvalue { ptr, i32 } %14, 1
  store i32 %16, ptr %7, align 4
  call void @_ZNSt8optionalIN3nix20MemorySourceAccessor4FileEED2Ev(ptr noundef nonnull align 8 dereferenceable(64) %5) #3
  br label %17

17:                                               ; preds = %13
  %18 = load ptr, ptr %6, align 8
  %19 = load i32, ptr %7, align 4
  %20 = insertvalue { ptr, i32 } poison, ptr %18, 0
  %21 = insertvalue { ptr, i32 } %20, i32 %19, 1
  resume { ptr, i32 } %21
}

; Function Attrs: uwtable
define noundef zeroext i1 @_ZTv0_n48_N3nix20MemorySourceAccessor10pathExistsERKNS_9CanonPathE(ptr noundef %0, ptr noundef nonnull align 8 dereferenceable(32) %1) unnamed_addr #0 align 2 {
  %3 = alloca ptr, align 8
  %4 = alloca ptr, align 8
  store ptr %0, ptr %3, align 8
  store ptr %1, ptr %4, align 8
  %5 = load ptr, ptr %3, align 8
  %6 = load ptr, ptr %5, align 8
  %7 = getelementptr inbounds i8, ptr %6, i64 -48
  %8 = load i64, ptr %7, align 8
  %9 = getelementptr inbounds i8, ptr %5, i64 %8
  %10 = load ptr, ptr %4, align 8
  %11 = tail call noundef zeroext i1 @_ZN3nix20MemorySourceAccessor10pathExistsERKNS_9CanonPathE(ptr noundef nonnull align 8 dereferenceable(64) %9, ptr noundef nonnull align 8 dereferenceable(32) %10)
  ret i1 %11
}