; Function Attrs: uwtable
define noundef zeroext i1 @_ZTv0_n48_N3nix20MemorySourceAccessor10pathExistsERKNS_9CanonPathE(ptr noundef %0, ptr nocapture noundef nonnull readonly align 8 dereferenceable(32) %1) unnamed_addr #8 align 2 personality ptr @__gxx_personality_v0 {
  %3 = alloca %"class.std::optional", align 8
  %4 = load ptr, ptr %0, align 8
  %5 = getelementptr inbounds i8, ptr %4, i64 -48
  %6 = load i64, ptr %5, align 8
  %7 = getelementptr inbounds i8, ptr %0, i64 %6
  call void @llvm.lifetime.start.p0(i64 64, ptr nonnull %3)
  %8 = getelementptr inbounds i8, ptr %3, i64 56
  store i8 0, ptr %8, align 8
  %9 = invoke noundef ptr @_ZN3nix20MemorySourceAccessor4openERKNS_9CanonPathESt8optionalINS0_4FileEE(ptr noundef nonnull align 8 dereferenceable(64) %7, ptr noundef nonnull align 8 dereferenceable(32) %1, ptr noundef nonnull %3)
          to label %_ZN3nix20MemorySourceAccessor10pathExistsERKNS_9CanonPathE.exit unwind label %10

10:                                               ; preds = %2
  %11 = landingpad { ptr, i32 }
          cleanup
  call void @_ZNSt22_Optional_payload_baseIN3nix20MemorySourceAccessor4FileEE8_M_resetEv(ptr noundef nonnull align 8 dereferenceable(57) %3) #23
  resume { ptr, i32 } %11

_ZN3nix20MemorySourceAccessor10pathExistsERKNS_9CanonPathE.exit: ; preds = %2
  %12 = icmp ne ptr %9, null
  call void @_ZNSt22_Optional_payload_baseIN3nix20MemorySourceAccessor4FileEE8_M_resetEv(ptr noundef nonnull align 8 dereferenceable(57) %3) #23
  call void @llvm.lifetime.end.p0(i64 64, ptr nonnull %3)
  ret i1 %12
}